target datalayout = "e-m:e-p270:32:32-p271:32:32-p272:64:64-i64:64-i128:128-f80:128-n8:16:32:64-S128"
target triple = "x86_64-pc-linux-gnu"

; Function Attrs: mustprogress nounwind uwtable
define linkonce_odr noundef float @_ZSt4fabsf(float noundef %0) #0 comdat {
  %2 = alloca float, align 4
  store float %0, ptr %2, align 4
  %3 = load float, ptr %2, align 4
  %4 = call float @llvm.fabs.f32(float %3)
  ret float %4
}

; Function Attrs: mustprogress uwtable
define internal noundef zeroext i1 @_ZN3gmx12_GLOBAL__N_115boxElementEqualEff(float noundef %0, float noundef %1) #1 {
  %3 = alloca float, align 4
  %4 = alloca float, align 4
  store float %0, ptr %3, align 4
  store float %1, ptr %4, align 4
  %5 = load float, ptr %3, align 4
  %6 = fpext float %5 to double
  %7 = load float, ptr %4, align 4
  %8 = fpext float %7 to double
  %9 = call noundef zeroext i1 @_Z14gmx_within_tolddd(double noundef %6, double noundef %8, double noundef 0x3EB4000000000000)
  br i1 %9, label %17, label %10

10:                                               ; preds = %2
  %11 = load float, ptr %3, align 4
  %12 = load float, ptr %4, align 4
  %13 = fsub float %11, %12
  %14 = call noundef float @_ZSt4fabsf(float noundef %13)
  %15 = fpext float %14 to double
  %16 = fcmp olt double %15, 1.000000e-03
  br label %17

17:                                               ; preds = %10, %2
  %18 = phi i1 [ true, %2 ], [ %16, %10 ]
  ret i1 %18
}

; Function Attrs: mustprogress uwtable
define noundef zeroext i1 @_ZN3gmx13boxesAreEqualEPA3_KfS2_(ptr noundef %0, ptr noundef %1) #1 {
  %3 = alloca ptr, align 8
  %4 = alloca ptr, align 8
  store ptr %0, ptr %3, align 8
  store ptr %1, ptr %4, align 8
  %5 = load ptr, ptr %3, align 8
  %6 = getelementptr inbounds [3 x float], ptr %5, i64 0
  %7 = getelementptr inbounds [3 x float], ptr %6, i64 0, i64 0
  %8 = load float, ptr %7, align 4
  %9 = load ptr, ptr %4, align 8
  %10 = getelementptr inbounds [3 x float], ptr %9, i64 0
  %11 = getelementptr inbounds [3 x float], ptr %10, i64 0, i64 0
  %12 = load float, ptr %11, align 4
  %13 = call noundef zeroext i1 @_ZN3gmx12_GLOBAL__N_115boxElementEqualEff(float noundef %8, float noundef %12)
  br i1 %13, label %14, label %64

14:                                               ; preds = %2
  %15 = load ptr, ptr %3, align 8
  %16 = getelementptr inbounds [3 x float], ptr %15, i64 1
  %17 = getelementptr inbounds [3 x float], ptr %16, i64 0, i64 0
  %18 = load float, ptr %17, align 4
  %19 = load ptr, ptr %4, align 8
  %20 = getelementptr inbounds [3 x float], ptr %19, i64 1
  %21 = getelementptr inbounds [3 x float], ptr %20, i64 0, i64 0
  %22 = load float, ptr %21, align 4
  %23 = call noundef zeroext i1 @_ZN3gmx12_GLOBAL__N_115boxElementEqualEff(float noundef %18, float noundef %22)
  br i1 %23, label %24, label %64

24:                                               ; preds = %14
  %25 = load ptr, ptr %3, align 8
  %26 = getelementptr inbounds [3 x float], ptr %25, i64 1
  %27 = getelementptr inbounds [3 x float], ptr %26, i64 0, i64 1
  %28 = load float, ptr %27, align 4
  %29 = load ptr, ptr %4, align 8
  %30 = getelementptr inbounds [3 x float], ptr %29, i64 1
  %31 = getelementptr inbounds [3 x float], ptr %30, i64 0, i64 1
  %32 = load float, ptr %31, align 4
  %33 = call noundef zeroext i1 @_ZN3gmx12_GLOBAL__N_115boxElementEqualEff(float noundef %28, float noundef %32)
  br i1 %33, label %34, label %64

34:                                               ; preds = %24
  %35 = load ptr, ptr %3, align 8
  %36 = getelementptr inbounds [3 x float], ptr %35, i64 2
  %37 = getelementptr inbounds [3 x float], ptr %36, i64 0, i64 0
  %38 = load float, ptr %37, align 4
  %39 = load ptr, ptr %4, align 8
  %40 = getelementptr inbounds [3 x float], ptr %39, i64 2
  %41 = getelementptr inbounds [3 x float], ptr %40, i64 0, i64 0
  %42 = load float, ptr %41, align 4
  %43 = call noundef zeroext i1 @_ZN3gmx12_GLOBAL__N_115boxElementEqualEff(float noundef %38, float noundef %42)
  br i1 %43, label %44, label %64

44:                                               ; preds = %34
  %45 = load ptr, ptr %3, align 8
  %46 = getelementptr inbounds [3 x float], ptr %45, i64 2
  %47 = getelementptr inbounds [3 x float], ptr %46, i64 0, i64 1
  %48 = load float, ptr %47, align 4
  %49 = load ptr, ptr %4, align 8
  %50 = getelementptr inbounds [3 x float], ptr %49, i64 2
  %51 = getelementptr inbounds [3 x float], ptr %50, i64 0, i64 1
  %52 = load float, ptr %51, align 4
  %53 = call noundef zeroext i1 @_ZN3gmx12_GLOBAL__N_115boxElementEqualEff(float noundef %48, float noundef %52)
  br i1 %53, label %54, label %64

54:                                               ; preds = %44
  %55 = load ptr, ptr %3, align 8
  %56 = getelementptr inbounds [3 x float], ptr %55, i64 2
  %57 = getelementptr inbounds [3 x float], ptr %56, i64 0, i64 2
  %58 = load float, ptr %57, align 4
  %59 = load ptr, ptr %4, align 8
  %60 = getelementptr inbounds [3 x float], ptr %59, i64 2
  %61 = getelementptr inbounds [3 x float], ptr %60, i64 0, i64 2
  %62 = load float, ptr %61, align 4
  %63 = call noundef zeroext i1 @_ZN3gmx12_GLOBAL__N_115boxElementEqualEff(float noundef %58, float noundef %62)
  br label %64

64:                                               ; preds = %54, %44, %34, %24, %14, %2
  %65 = phi i1 [ false, %44 ], [ false, %34 ], [ false, %24 ], [ false, %14 ], [ false, %2 ], [ %63, %54 ]
  ret i1 %65
}