; Function Attrs: mustprogress uwtable
define noundef zeroext i1 @_ZN3gmx13boxesAreEqualEPA3_KfS2_(ptr nocapture noundef readonly %0, ptr nocapture noundef readonly %1) local_unnamed_addr #1 {
  %3 = load float, ptr %0, align 4
  %4 = load float, ptr %1, align 4
  %5 = fpext float %3 to double
  %6 = fpext float %4 to double
  %7 = tail call noundef zeroext i1 @_Z14gmx_within_tolddd(double noundef %5, double noundef %6, double noundef 0x3EB4000000000000)
  br i1 %7, label %_ZN3gmx12_GLOBAL__N_115boxElementEqualEff.exit.thread, label %_ZN3gmx12_GLOBAL__N_115boxElementEqualEff.exit

_ZN3gmx12_GLOBAL__N_115boxElementEqualEff.exit:   ; preds = %2
  %8 = fsub float %3, %4
  %9 = tail call noundef float @llvm.fabs.f32(float %8)
  %10 = fpext float %9 to double
  %11 = fcmp olt double %10, 1.000000e-03
  br i1 %11, label %_ZN3gmx12_GLOBAL__N_115boxElementEqualEff.exit.thread, label %_ZN3gmx12_GLOBAL__N_115boxElementEqualEff.exit16

_ZN3gmx12_GLOBAL__N_115boxElementEqualEff.exit.thread: ; preds = %2, %_ZN3gmx12_GLOBAL__N_115boxElementEqualEff.exit
  %12 = getelementptr inbounds i8, ptr %0, i64 12
  %13 = load float, ptr %12, align 4
  %14 = getelementptr inbounds i8, ptr %1, i64 12
  %15 = load float, ptr %14, align 4
  %16 = fpext float %13 to double
  %17 = fpext float %15 to double
  %18 = tail call noundef zeroext i1 @_Z14gmx_within_tolddd(double noundef %16, double noundef %17, double noundef 0x3EB4000000000000)
  br i1 %18, label %_ZN3gmx12_GLOBAL__N_115boxElementEqualEff.exit12.thread, label %_ZN3gmx12_GLOBAL__N_115boxElementEqualEff.exit12

_ZN3gmx12_GLOBAL__N_115boxElementEqualEff.exit12: ; preds = %_ZN3gmx12_GLOBAL__N_115boxElementEqualEff.exit.thread
  %19 = fsub float %13, %15
  %20 = tail call noundef float @llvm.fabs.f32(float %19)
  %21 = fpext float %20 to double
  %22 = fcmp olt double %21, 1.000000e-03
  br i1 %22, label %_ZN3gmx12_GLOBAL__N_115boxElementEqualEff.exit12.thread, label %_ZN3gmx12_GLOBAL__N_115boxElementEqualEff.exit16

_ZN3gmx12_GLOBAL__N_115boxElementEqualEff.exit12.thread: ; preds = %_ZN3gmx12_GLOBAL__N_115boxElementEqualEff.exit.thread, %_ZN3gmx12_GLOBAL__N_115boxElementEqualEff.exit12
  %23 = getelementptr inbounds i8, ptr %0, i64 16
  %24 = load float, ptr %23, align 4
  %25 = getelementptr inbounds i8, ptr %1, i64 16
  %26 = load float, ptr %25, align 4
  %27 = fpext float %24 to double
  %28 = fpext float %26 to double
  %29 = tail call noundef zeroext i1 @_Z14gmx_within_tolddd(double noundef %27, double noundef %28, double noundef 0x3EB4000000000000)
  br i1 %29, label %_ZN3gmx12_GLOBAL__N_115boxElementEqualEff.exit13.thread, label %_ZN3gmx12_GLOBAL__N_115boxElementEqualEff.exit13

_ZN3gmx12_GLOBAL__N_115boxElementEqualEff.exit13: ; preds = %_ZN3gmx12_GLOBAL__N_115boxElementEqualEff.exit12.thread
  %30 = fsub float %24, %26
  %31 = tail call noundef float @llvm.fabs.f32(float %30)
  %32 = fpext float %31 to double
  %33 = fcmp olt double %32, 1.000000e-03
  br i1 %33, label %_ZN3gmx12_GLOBAL__N_115boxElementEqualEff.exit13.thread, label %_ZN3gmx12_GLOBAL__N_115boxElementEqualEff.exit16

_ZN3gmx12_GLOBAL__N_115boxElementEqualEff.exit13.thread: ; preds = %_ZN3gmx12_GLOBAL__N_115boxElementEqualEff.exit12.thread, %_ZN3gmx12_GLOBAL__N_115boxElementEqualEff.exit13
  %34 = getelementptr inbounds i8, ptr %0, i64 24
  %35 = load float, ptr %34, align 4
  %36 = getelementptr inbounds i8, ptr %1, i64 24
  %37 = load float, ptr %36, align 4
  %38 = fpext float %35 to double
  %39 = fpext float %37 to double
  %40 = tail call noundef zeroext i1 @_Z14gmx_within_tolddd(double noundef %38, double noundef %39, double noundef 0x3EB4000000000000)
  br i1 %40, label %_ZN3gmx12_GLOBAL__N_115boxElementEqualEff.exit14.thread, label %_ZN3gmx12_GLOBAL__N_115boxElementEqualEff.exit14

_ZN3gmx12_GLOBAL__N_115boxElementEqualEff.exit14: ; preds = %_ZN3gmx12_GLOBAL__N_115boxElementEqualEff.exit13.thread
  %41 = fsub float %35, %37
  %42 = tail call noundef float @llvm.fabs.f32(float %41)
  %43 = fpext float %42 to double
  %44 = fcmp olt double %43, 1.000000e-03
  br i1 %44, label %_ZN3gmx12_GLOBAL__N_115boxElementEqualEff.exit14.thread, label %_ZN3gmx12_GLOBAL__N_115boxElementEqualEff.exit16

_ZN3gmx12_GLOBAL__N_115boxElementEqualEff.exit14.thread: ; preds = %_ZN3gmx12_GLOBAL__N_115boxElementEqualEff.exit13.thread, %_ZN3gmx12_GLOBAL__N_115boxElementEqualEff.exit14
  %45 = getelementptr inbounds i8, ptr %0, i64 28
  %46 = load float, ptr %45, align 4
  %47 = getelementptr inbounds i8, ptr %1, i64 28
  %48 = load float, ptr %47, align 4
  %49 = fpext float %46 to double
  %50 = fpext float %48 to double
  %51 = tail call noundef zeroext i1 @_Z14gmx_within_tolddd(double noundef %49, double noundef %50, double noundef 0x3EB4000000000000)
  br i1 %51, label %_ZN3gmx12_GLOBAL__N_115boxElementEqualEff.exit15.thread, label %_ZN3gmx12_GLOBAL__N_115boxElementEqualEff.exit15

_ZN3gmx12_GLOBAL__N_115boxElementEqualEff.exit15: ; preds = %_ZN3gmx12_GLOBAL__N_115boxElementEqualEff.exit14.thread
  %52 = fsub float %46, %48
  %53 = tail call noundef float @llvm.fabs.f32(float %52)
  %54 = fpext float %53 to double
  %55 = fcmp olt double %54, 1.000000e-03
  br i1 %55, label %_ZN3gmx12_GLOBAL__N_115boxElementEqualEff.exit15.thread, label %_ZN3gmx12_GLOBAL__N_115boxElementEqualEff.exit16

_ZN3gmx12_GLOBAL__N_115boxElementEqualEff.exit15.thread: ; preds = %_ZN3gmx12_GLOBAL__N_115boxElementEqualEff.exit14.thread, %_ZN3gmx12_GLOBAL__N_115boxElementEqualEff.exit15
  %56 = getelementptr inbounds i8, ptr %0, i64 32
  %57 = load float, ptr %56, align 4
  %58 = getelementptr inbounds i8, ptr %1, i64 32
  %59 = load float, ptr %58, align 4
  %60 = fpext float %57 to double
  %61 = fpext float %59 to double
  %62 = tail call noundef zeroext i1 @_Z14gmx_within_tolddd(double noundef %60, double noundef %61, double noundef 0x3EB4000000000000)
  br i1 %62, label %_ZN3gmx12_GLOBAL__N_115boxElementEqualEff.exit16, label %63

63:                                               ; preds = %_ZN3gmx12_GLOBAL__N_115boxElementEqualEff.exit15.thread
  %64 = fsub float %57, %59
  %65 = tail call noundef float @llvm.fabs.f32(float %64)
  %66 = fpext float %65 to double
  %67 = fcmp olt double %66, 1.000000e-03
  br label %_ZN3gmx12_GLOBAL__N_115boxElementEqualEff.exit16

_ZN3gmx12_GLOBAL__N_115boxElementEqualEff.exit16: ; preds = %63, %_ZN3gmx12_GLOBAL__N_115boxElementEqualEff.exit15.thread, %_ZN3gmx12_GLOBAL__N_115boxElementEqualEff.exit15, %_ZN3gmx12_GLOBAL__N_115boxElementEqualEff.exit14, %_ZN3gmx12_GLOBAL__N_115boxElementEqualEff.exit13, %_ZN3gmx12_GLOBAL__N_115boxElementEqualEff.exit12, %_ZN3gmx12_GLOBAL__N_115boxElementEqualEff.exit
  %68 = phi i1 [ false, %_ZN3gmx12_GLOBAL__N_115boxElementEqualEff.exit15 ], [ false, %_ZN3gmx12_GLOBAL__N_115boxElementEqualEff.exit14 ], [ false, %_ZN3gmx12_GLOBAL__N_115boxElementEqualEff.exit13 ], [ false, %_ZN3gmx12_GLOBAL__N_115boxElementEqualEff.exit12 ], [ false, %_ZN3gmx12_GLOBAL__N_115boxElementEqualEff.exit ], [ true, %_ZN3gmx12_GLOBAL__N_115boxElementEqualEff.exit15.thread ], [ %67, %63 ]
  ret i1 %68
}